target datalayout = "e-m:e-p270:32:32-p271:32:32-p272:64:64-i64:64-i128:128-f80:128-n8:16:32:64-S128"
target triple = "x86_64-pc-linux-gnu"

%class.PhaseRegAlloc = type { ptr, %class.Phase, ptr, i32, %class.VectorSet, ptr, i32, i32, ptr }
%class.Phase = type { i32, ptr }
%class.VectorSet = type { i32, ptr, i32, ptr }
%class.Node = type <{ ptr, ptr, ptr, i32, i32, i32, i32, i32, i32, i32, [4 x i8] }>

; Function Attrs: mustprogress nounwind uwtable
define linkonce_odr hidden void @_ZN9VectorSet3setEj(ptr noundef nonnull align 8 dereferenceable(32) %0, i32 noundef %1) #1 comdat align 2 {
  %3 = alloca ptr, align 8
  %4 = alloca i32, align 4
  %5 = alloca i32, align 4
  %6 = alloca i32, align 4
  store ptr %0, ptr %3, align 8
  store i32 %1, ptr %4, align 4
  %7 = load ptr, ptr %3, align 8
  %8 = load i32, ptr %4, align 4
  %9 = lshr i32 %8, 5
  store i32 %9, ptr %5, align 4
  %10 = load i32, ptr %5, align 4
  %11 = getelementptr inbounds %class.VectorSet, ptr %7, i32 0, i32 0
  %12 = load i32, ptr %11, align 8
  %13 = icmp uge i32 %10, %12
  br i1 %13, label %14, label %16

14:                                               ; preds = %2
  %15 = load i32, ptr %5, align 4
  call void @_ZN9VectorSet4growEj(ptr noundef nonnull align 8 dereferenceable(32) %7, i32 noundef %15)
  br label %16

16:                                               ; preds = %14, %2
  %17 = load i32, ptr %4, align 4
  %18 = and i32 %17, 31
  %19 = shl i32 1, %18
  store i32 %19, ptr %6, align 4
  %20 = load i32, ptr %6, align 4
  %21 = getelementptr inbounds %class.VectorSet, ptr %7, i32 0, i32 1
  %22 = load ptr, ptr %21, align 8
  %23 = load i32, ptr %5, align 4
  %24 = zext i32 %23 to i64
  %25 = getelementptr inbounds i32, ptr %22, i64 %24
  %26 = load i32, ptr %25, align 4
  %27 = or i32 %26, %20
  store i32 %27, ptr %25, align 4
  ret void
}

; Function Attrs: mustprogress nounwind uwtable
define hidden void @_ZN13PhaseRegAlloc7set_oopEPK4Nodeb(ptr noundef nonnull align 8 dereferenceable(96) %0, ptr noundef %1, i1 noundef zeroext %2) #1 align 2 {
  %4 = alloca ptr, align 8
  %5 = alloca ptr, align 8
  %6 = alloca i8, align 1
  store ptr %0, ptr %4, align 8
  store ptr %1, ptr %5, align 8
  %7 = zext i1 %2 to i8
  store i8 %7, ptr %6, align 1
  %8 = load ptr, ptr %4, align 8
  %9 = load i8, ptr %6, align 1
  %10 = trunc i8 %9 to i1
  br i1 %10, label %11, label %16

11:                                               ; preds = %3
  %12 = getelementptr inbounds %class.PhaseRegAlloc, ptr %8, i32 0, i32 4
  %13 = load ptr, ptr %5, align 8
  %14 = getelementptr inbounds %class.Node, ptr %13, i32 0, i32 7
  %15 = load i32, ptr %14, align 8
  call void @_ZN9VectorSet3setEj(ptr noundef nonnull align 8 dereferenceable(32) %12, i32 noundef %15)
  br label %16

16:                                               ; preds = %11, %3
  ret void
}