; Function Attrs: mustprogress nounwind uwtable
define hidden void @_ZN13PhaseRegAlloc7set_oopEPK4Nodeb(ptr noundef nonnull align 8 dereferenceable(96) %0, ptr nocapture noundef readonly %1, i1 noundef zeroext %2) local_unnamed_addr #0 align 2 {
  br i1 %2, label %4, label %19

4:                                                ; preds = %3
  %5 = getelementptr inbounds i8, ptr %0, i64 40
  %6 = getelementptr inbounds i8, ptr %1, i64 40
  %7 = load i32, ptr %6, align 8
  %8 = lshr i32 %7, 5
  %9 = load i32, ptr %5, align 8
  %.not.i = icmp ult i32 %8, %9
  br i1 %.not.i, label %_ZN9VectorSet3setEj.exit, label %10

10:                                               ; preds = %4
  tail call void @_ZN9VectorSet4growEj(ptr noundef nonnull align 8 dereferenceable(32) %5, i32 noundef %8) #3
  br label %_ZN9VectorSet3setEj.exit

_ZN9VectorSet3setEj.exit:                         ; preds = %4, %10
  %11 = and i32 %7, 31
  %12 = shl nuw i32 1, %11
  %13 = getelementptr inbounds i8, ptr %0, i64 48
  %14 = load ptr, ptr %13, align 8
  %15 = zext nneg i32 %8 to i64
  %16 = getelementptr inbounds i32, ptr %14, i64 %15
  %17 = load i32, ptr %16, align 4
  %18 = or i32 %17, %12
  store i32 %18, ptr %16, align 4
  br label %19

19:                                               ; preds = %_ZN9VectorSet3setEj.exit, %3
  ret void
}